target datalayout = "e-m:e-p270:32:32-p271:32:32-p272:64:64-i64:64-i128:128-f80:128-n8:16:32:64-S128"
target triple = "x86_64-pc-linux-gnu"

@_ZL25g_exit_when_out_of_memory = internal global i8 0, align 1
@_ZL19g_out_of_memory_msg = internal global ptr @.str.5, align 8

; Function Attrs: mustprogress nounwind uwtable
define hidden void @_ZN6memory23exit_when_out_of_memoryEbPKc(i1 noundef zeroext %0, ptr noundef %1) #6 align 2 {
  %3 = alloca i8, align 1
  %4 = alloca ptr, align 8
  %5 = zext i1 %0 to i8
  store i8 %5, ptr %3, align 1, !tbaa !12
  store ptr %1, ptr %4, align 8, !tbaa !14
  %6 = load i8, ptr %3, align 1, !tbaa !12, !range !16, !noundef !17
  %7 = trunc i8 %6 to i1
  %8 = zext i1 %7 to i8
  store i8 %8, ptr @_ZL25g_exit_when_out_of_memory, align 1, !tbaa !12
  %9 = load i8, ptr %3, align 1, !tbaa !12, !range !16, !noundef !17
  %10 = trunc i8 %9 to i1
  br i1 %10, label %11, label %16

11:                                               ; preds = %2
  %12 = load ptr, ptr %4, align 8, !tbaa !14
  %13 = icmp ne ptr %12, null
  br i1 %13, label %14, label %16

14:                                               ; preds = %11
  %15 = load ptr, ptr %4, align 8, !tbaa !14
  store ptr %15, ptr @_ZL19g_out_of_memory_msg, align 8, !tbaa !14
  br label %16

16:                                               ; preds = %14, %11, %2
  ret void
}