; Function Attrs: mustprogress nofree norecurse nosync nounwind willreturn memory(write, argmem: none, inaccessiblemem: none) uwtable
define hidden void @_ZN6memory23exit_when_out_of_memoryEbPKc(i1 noundef zeroext %0, ptr noundef %1) local_unnamed_addr #5 align 2 {
  %3 = zext i1 %0 to i8
  store i8 %3, ptr @_ZL25g_exit_when_out_of_memory, align 1, !tbaa !6
  %4 = icmp ne ptr %1, null
  %or.cond = and i1 %0, %4
  br i1 %or.cond, label %5, label %6

5:                                                ; preds = %2
  store ptr %1, ptr @_ZL19g_out_of_memory_msg, align 8, !tbaa !9
  br label %6

6:                                                ; preds = %5, %2
  ret void
}